target datalayout = "e-m:e-p270:32:32-p271:32:32-p272:64:64-i64:64-i128:128-f80:128-n8:16:32:64-S128"
target triple = "x86_64-pc-linux-gnu"

%struct.stmm_table = type { ptr, ptr, i32, i32, i32, i32, double, ptr, ptr }
%struct.stmm_table_entry = type { ptr, ptr, ptr }

; Function Attrs: nounwind uwtable
define internal i32 @Abc_AbsInt(i32 noundef %0) #0 {
  %2 = alloca i32, align 4
  store i32 %0, ptr %2, align 4
  %3 = load i32, ptr %2, align 4
  %4 = icmp slt i32 %3, 0
  br i1 %4, label %5, label %8

5:                                                ; preds = %1
  %6 = load i32, ptr %2, align 4
  %7 = sub nsw i32 0, %6
  br label %10

8:                                                ; preds = %1
  %9 = load i32, ptr %2, align 4
  br label %10

10:                                               ; preds = %8, %5
  %11 = phi i32 [ %7, %5 ], [ %9, %8 ]
  ret i32 %11
}

; Function Attrs: nounwind uwtable
define i32 @stmm_find(ptr noundef %0, ptr noundef %1, ptr noundef %2) #0 {
  %4 = alloca i32, align 4
  %5 = alloca ptr, align 8
  %6 = alloca ptr, align 8
  %7 = alloca ptr, align 8
  %8 = alloca i32, align 4
  %9 = alloca ptr, align 8
  %10 = alloca ptr, align 8
  store ptr %0, ptr %5, align 8
  store ptr %1, ptr %6, align 8
  store ptr %2, ptr %7, align 8
  %11 = load ptr, ptr %5, align 8
  %12 = getelementptr inbounds %struct.stmm_table, ptr %11, i32 0, i32 1
  %13 = load ptr, ptr %12, align 8
  %14 = icmp eq ptr %13, @stmm_ptrhash
  br i1 %14, label %15, label %25

15:                                               ; preds = %3
  %16 = load ptr, ptr %6, align 8
  %17 = ptrtoint ptr %16 to i64
  %18 = lshr i64 %17, 2
  %19 = load ptr, ptr %5, align 8
  %20 = getelementptr inbounds %struct.stmm_table, ptr %19, i32 0, i32 2
  %21 = load i32, ptr %20, align 8
  %22 = sext i32 %21 to i64
  %23 = urem i64 %18, %22
  %24 = trunc i64 %23 to i32
  br label %50

25:                                               ; preds = %3
  %26 = load ptr, ptr %5, align 8
  %27 = getelementptr inbounds %struct.stmm_table, ptr %26, i32 0, i32 1
  %28 = load ptr, ptr %27, align 8
  %29 = icmp eq ptr %28, @stmm_numhash
  br i1 %29, label %30, label %39

30:                                               ; preds = %25
  %31 = load ptr, ptr %6, align 8
  %32 = ptrtoint ptr %31 to i64
  %33 = trunc i64 %32 to i32
  %34 = call i32 @Abc_AbsInt(i32 noundef %33)
  %35 = load ptr, ptr %5, align 8
  %36 = getelementptr inbounds %struct.stmm_table, ptr %35, i32 0, i32 2
  %37 = load i32, ptr %36, align 8
  %38 = srem i32 %34, %37
  br label %48

39:                                               ; preds = %25
  %40 = load ptr, ptr %5, align 8
  %41 = getelementptr inbounds %struct.stmm_table, ptr %40, i32 0, i32 1
  %42 = load ptr, ptr %41, align 8
  %43 = load ptr, ptr %6, align 8
  %44 = load ptr, ptr %5, align 8
  %45 = getelementptr inbounds %struct.stmm_table, ptr %44, i32 0, i32 2
  %46 = load i32, ptr %45, align 8
  %47 = call i32 %42(ptr noundef %43, i32 noundef %46)
  br label %48

48:                                               ; preds = %39, %30
  %49 = phi i32 [ %38, %30 ], [ %47, %39 ]
  br label %50

50:                                               ; preds = %48, %15
  %51 = phi i32 [ %24, %15 ], [ %49, %48 ]
  store i32 %51, ptr %8, align 4
  %52 = load ptr, ptr %5, align 8
  %53 = getelementptr inbounds %struct.stmm_table, ptr %52, i32 0, i32 7
  %54 = load ptr, ptr %53, align 8
  %55 = load i32, ptr %8, align 4
  %56 = sext i32 %55 to i64
  %57 = getelementptr inbounds ptr, ptr %54, i64 %56
  store ptr %57, ptr %10, align 8
  %58 = load ptr, ptr %10, align 8
  %59 = load ptr, ptr %58, align 8
  store ptr %59, ptr %9, align 8
  br label %60

60:                                               ; preds = %99, %50
  %61 = load ptr, ptr %9, align 8
  %62 = icmp ne ptr %61, null
  br i1 %62, label %63, label %97

63:                                               ; preds = %60
  %64 = load ptr, ptr %5, align 8
  %65 = getelementptr inbounds %struct.stmm_table, ptr %64, i32 0, i32 0
  %66 = load ptr, ptr %65, align 8
  %67 = icmp eq ptr %66, @stmm_numcmp
  br i1 %67, label %73, label %68

68:                                               ; preds = %63
  %69 = load ptr, ptr %5, align 8
  %70 = getelementptr inbounds %struct.stmm_table, ptr %69, i32 0, i32 0
  %71 = load ptr, ptr %70, align 8
  %72 = icmp eq ptr %71, @stmm_ptrcmp
  br i1 %72, label %73, label %82

73:                                               ; preds = %68, %63
  %74 = load ptr, ptr %6, align 8
  %75 = load ptr, ptr %9, align 8
  %76 = getelementptr inbounds %struct.stmm_table_entry, ptr %75, i32 0, i32 0
  %77 = load ptr, ptr %76, align 8
  %78 = icmp ne ptr %74, %77
  %79 = zext i1 %78 to i32
  %80 = icmp eq i32 %79, 0
  %81 = zext i1 %80 to i32
  br label %93

82:                                               ; preds = %68
  %83 = load ptr, ptr %5, align 8
  %84 = getelementptr inbounds %struct.stmm_table, ptr %83, i32 0, i32 0
  %85 = load ptr, ptr %84, align 8
  %86 = load ptr, ptr %6, align 8
  %87 = load ptr, ptr %9, align 8
  %88 = getelementptr inbounds %struct.stmm_table_entry, ptr %87, i32 0, i32 0
  %89 = load ptr, ptr %88, align 8
  %90 = call i32 %85(ptr noundef %86, ptr noundef %89)
  %91 = icmp eq i32 %90, 0
  %92 = zext i1 %91 to i32
  br label %93

93:                                               ; preds = %82, %73
  %94 = phi i32 [ %81, %73 ], [ %92, %82 ]
  %95 = icmp ne i32 %94, 0
  %96 = xor i1 %95, true
  br label %97

97:                                               ; preds = %93, %60
  %98 = phi i1 [ false, %60 ], [ %96, %93 ]
  br i1 %98, label %99, label %104

99:                                               ; preds = %97
  %100 = load ptr, ptr %9, align 8
  %101 = getelementptr inbounds %struct.stmm_table_entry, ptr %100, i32 0, i32 2
  store ptr %101, ptr %10, align 8
  %102 = load ptr, ptr %10, align 8
  %103 = load ptr, ptr %102, align 8
  store ptr %103, ptr %9, align 8
  br label %60, !llvm.loop !14

104:                                              ; preds = %97
  %105 = load ptr, ptr %9, align 8
  %106 = icmp ne ptr %105, null
  br i1 %106, label %107, label %133

107:                                              ; preds = %104
  %108 = load ptr, ptr %5, align 8
  %109 = getelementptr inbounds %struct.stmm_table, ptr %108, i32 0, i32 5
  %110 = load i32, ptr %109, align 4
  %111 = icmp ne i32 %110, 0
  br i1 %111, label %112, label %133

112:                                              ; preds = %107
  %113 = load ptr, ptr %9, align 8
  %114 = getelementptr inbounds %struct.stmm_table_entry, ptr %113, i32 0, i32 2
  %115 = load ptr, ptr %114, align 8
  %116 = load ptr, ptr %10, align 8
  store ptr %115, ptr %116, align 8
  %117 = load ptr, ptr %5, align 8
  %118 = getelementptr inbounds %struct.stmm_table, ptr %117, i32 0, i32 7
  %119 = load ptr, ptr %118, align 8
  %120 = load i32, ptr %8, align 4
  %121 = sext i32 %120 to i64
  %122 = getelementptr inbounds ptr, ptr %119, i64 %121
  %123 = load ptr, ptr %122, align 8
  %124 = load ptr, ptr %9, align 8
  %125 = getelementptr inbounds %struct.stmm_table_entry, ptr %124, i32 0, i32 2
  store ptr %123, ptr %125, align 8
  %126 = load ptr, ptr %9, align 8
  %127 = load ptr, ptr %5, align 8
  %128 = getelementptr inbounds %struct.stmm_table, ptr %127, i32 0, i32 7
  %129 = load ptr, ptr %128, align 8
  %130 = load i32, ptr %8, align 4
  %131 = sext i32 %130 to i64
  %132 = getelementptr inbounds ptr, ptr %129, i64 %131
  store ptr %126, ptr %132, align 8
  br label %133

133:                                              ; preds = %112, %107, %104
  %134 = load ptr, ptr %9, align 8
  %135 = icmp eq ptr %134, null
  br i1 %135, label %136, label %137

136:                                              ; preds = %133
  store i32 0, ptr %4, align 4
  br label %145

137:                                              ; preds = %133
  %138 = load ptr, ptr %7, align 8
  %139 = icmp ne ptr %138, null
  br i1 %139, label %140, label %144

140:                                              ; preds = %137
  %141 = load ptr, ptr %9, align 8
  %142 = getelementptr inbounds %struct.stmm_table_entry, ptr %141, i32 0, i32 1
  %143 = load ptr, ptr %7, align 8
  store ptr %142, ptr %143, align 8
  br label %144

144:                                              ; preds = %140, %137
  store i32 1, ptr %4, align 4
  br label %145

145:                                              ; preds = %144, %136
  %146 = load i32, ptr %4, align 4
  ret i32 %146
}