; Function Attrs: nounwind uwtable
define range(i32 0, 2) i32 @stmm_find(ptr noundef readonly captures(none) %0, ptr noundef %1, ptr noundef writeonly %2) local_unnamed_addr #0 {
  %4 = getelementptr inbounds nuw i8, ptr %0, i64 8
  %5 = load ptr, ptr %4, align 8
  %6 = icmp eq ptr %5, @stmm_ptrhash
  br i1 %6, label %7, label %15

7:                                                ; preds = %3
  %8 = ptrtoint ptr %1 to i64
  %9 = lshr i64 %8, 2
  %10 = getelementptr inbounds nuw i8, ptr %0, i64 16
  %11 = load i32, ptr %10, align 8
  %12 = sext i32 %11 to i64
  %13 = urem i64 %9, %12
  %14 = trunc i64 %13 to i32
  br label %28

15:                                               ; preds = %3
  %16 = icmp eq ptr %5, @stmm_numhash
  br i1 %16, label %17, label %24

17:                                               ; preds = %15
  %18 = ptrtoint ptr %1 to i64
  %19 = trunc i64 %18 to i32
  %20 = tail call range(i32 0, -2147483648) i32 @llvm.abs.i32(i32 %19, i1 true)
  %21 = getelementptr inbounds nuw i8, ptr %0, i64 16
  %22 = load i32, ptr %21, align 8
  %23 = srem i32 %20, %22
  br label %28

24:                                               ; preds = %15
  %25 = getelementptr inbounds nuw i8, ptr %0, i64 16
  %26 = load i32, ptr %25, align 8
  %27 = tail call i32 %5(ptr noundef %1, i32 noundef %26) #13
  br label %28

28:                                               ; preds = %17, %24, %7
  %29 = phi i32 [ %14, %7 ], [ %23, %17 ], [ %27, %24 ]
  %30 = getelementptr inbounds nuw i8, ptr %0, i64 40
  %31 = load ptr, ptr %30, align 8
  %32 = sext i32 %29 to i64
  %33 = getelementptr inbounds ptr, ptr %31, i64 %32
  %.03647 = load ptr, ptr %33, align 8
  %.not48 = icmp eq ptr %.03647, null
  br i1 %.not48, label %.critedge44, label %.lr.ph

.lr.ph:                                           ; preds = %28, %42
  %.03650 = phi ptr [ %.036, %42 ], [ %.03647, %28 ]
  %.049 = phi ptr [ %43, %42 ], [ %33, %28 ]
  %34 = load ptr, ptr %0, align 8
  %35 = icmp eq ptr %34, @stmm_numcmp
  %36 = icmp eq ptr %34, @stmm_ptrcmp
  %or.cond = or i1 %35, %36
  %37 = load ptr, ptr %.03650, align 8
  br i1 %or.cond, label %38, label %39

38:                                               ; preds = %.lr.ph
  %.not41 = icmp eq ptr %1, %37
  br i1 %.not41, label %.critedge, label %42

39:                                               ; preds = %.lr.ph
  %40 = tail call i32 %34(ptr noundef %1, ptr noundef %37) #13
  %41 = icmp eq i32 %40, 0
  br i1 %41, label %.critedge, label %42

42:                                               ; preds = %38, %39
  %43 = getelementptr inbounds nuw i8, ptr %.03650, i64 16
  %.036 = load ptr, ptr %43, align 8
  %.not = icmp eq ptr %.036, null
  br i1 %.not, label %.critedge44, label %.lr.ph, !llvm.loop !13

.critedge:                                        ; preds = %39, %38
  %44 = getelementptr inbounds nuw i8, ptr %0, i64 28
  %45 = load i32, ptr %44, align 4
  %.not42 = icmp eq i32 %45, 0
  br i1 %.not42, label %54, label %46

46:                                               ; preds = %.critedge
  %47 = getelementptr inbounds nuw i8, ptr %.03650, i64 16
  %48 = load ptr, ptr %47, align 8
  store ptr %48, ptr %.049, align 8
  %49 = load ptr, ptr %30, align 8
  %50 = getelementptr inbounds ptr, ptr %49, i64 %32
  %51 = load ptr, ptr %50, align 8
  store ptr %51, ptr %47, align 8
  %52 = load ptr, ptr %30, align 8
  %53 = getelementptr inbounds ptr, ptr %52, i64 %32
  store ptr %.03650, ptr %53, align 8
  br label %54

54:                                               ; preds = %46, %.critedge
  %.not43 = icmp eq ptr %2, null
  br i1 %.not43, label %.critedge44, label %55

55:                                               ; preds = %54
  %56 = getelementptr inbounds nuw i8, ptr %.03650, i64 8
  store ptr %56, ptr %2, align 8
  br label %.critedge44

.critedge44:                                      ; preds = %42, %28, %54, %55
  %.037 = phi i32 [ 1, %55 ], [ 1, %54 ], [ 0, %28 ], [ 0, %42 ]
  ret i32 %.037
}